target datalayout = "e-m:e-p270:32:32-p271:32:32-p272:64:64-i64:64-i128:128-f80:128-n8:16:32:64-S128"
target triple = "x86_64-pc-linux-gnu"

%struct.ThreadData = type { ptr, ptr, ptr, i32, i32, float }

; Function Attrs: nounwind uwtable
define internal i32 @filter_inverse_flt_noclip(ptr noundef %0, ptr noundef %1, i32 noundef %2, i32 noundef %3) #2 {
  %5 = alloca ptr, align 8
  %6 = alloca ptr, align 8
  %7 = alloca i32, align 4
  %8 = alloca i32, align 4
  %9 = alloca ptr, align 8
  %10 = alloca ptr, align 8
  %11 = alloca ptr, align 8
  %12 = alloca ptr, align 8
  %13 = alloca i32, align 4
  %14 = alloca i32, align 4
  %15 = alloca float, align 4
  %16 = alloca float, align 4
  %17 = alloca i32, align 4
  %18 = alloca i32, align 4
  %19 = alloca ptr, align 8
  %20 = alloca i32, align 4
  %21 = alloca i32, align 4
  %22 = alloca ptr, align 8
  %23 = alloca ptr, align 8
  %24 = alloca i32, align 4
  %25 = alloca float, align 4
  store ptr %0, ptr %5, align 8, !tbaa !4
  store ptr %1, ptr %6, align 8, !tbaa !58
  store i32 %2, ptr %7, align 4, !tbaa !61
  store i32 %3, ptr %8, align 4, !tbaa !61
  call void @llvm.lifetime.start.p0(i64 8, ptr %9) #7
  %26 = load ptr, ptr %6, align 8, !tbaa !58
  store ptr %26, ptr %9, align 8, !tbaa !62
  call void @llvm.lifetime.start.p0(i64 8, ptr %10) #7
  %27 = load ptr, ptr %9, align 8, !tbaa !62
  %28 = getelementptr inbounds nuw %struct.ThreadData, ptr %27, i32 0, i32 0
  %29 = load ptr, ptr %28, align 8, !tbaa !47
  store ptr %29, ptr %10, align 8, !tbaa !64
  call void @llvm.lifetime.start.p0(i64 8, ptr %11) #7
  %30 = load ptr, ptr %9, align 8, !tbaa !62
  %31 = getelementptr inbounds nuw %struct.ThreadData, ptr %30, i32 0, i32 1
  %32 = load ptr, ptr %31, align 8, !tbaa !50
  store ptr %32, ptr %11, align 8, !tbaa !64
  call void @llvm.lifetime.start.p0(i64 8, ptr %12) #7
  %33 = load ptr, ptr %9, align 8, !tbaa !62
  %34 = getelementptr inbounds nuw %struct.ThreadData, ptr %33, i32 0, i32 2
  %35 = load ptr, ptr %34, align 8, !tbaa !49
  store ptr %35, ptr %12, align 8, !tbaa !64
  call void @llvm.lifetime.start.p0(i64 4, ptr %13) #7
  %36 = load ptr, ptr %9, align 8, !tbaa !62
  %37 = getelementptr inbounds nuw %struct.ThreadData, ptr %36, i32 0, i32 3
  %38 = load i32, ptr %37, align 8, !tbaa !51
  store i32 %38, ptr %13, align 4, !tbaa !61
  call void @llvm.lifetime.start.p0(i64 4, ptr %14) #7
  %39 = load ptr, ptr %9, align 8, !tbaa !62
  %40 = getelementptr inbounds nuw %struct.ThreadData, ptr %39, i32 0, i32 4
  %41 = load i32, ptr %40, align 4, !tbaa !53
  store i32 %41, ptr %14, align 4, !tbaa !61
  call void @llvm.lifetime.start.p0(i64 4, ptr %15) #7
  %42 = load ptr, ptr %9, align 8, !tbaa !62
  %43 = getelementptr inbounds nuw %struct.ThreadData, ptr %42, i32 0, i32 5
  %44 = load float, ptr %43, align 8, !tbaa !56
  store float %44, ptr %15, align 4, !tbaa !65
  call void @llvm.lifetime.start.p0(i64 4, ptr %16) #7
  %45 = load float, ptr %15, align 4, !tbaa !65
  %46 = fneg nsz float %45
  %47 = fadd nsz float %46, 1.000000e+00
  %48 = fdiv nsz float 1.000000e+00, %47
  store float %48, ptr %16, align 4, !tbaa !65
  call void @llvm.lifetime.start.p0(i64 4, ptr %17) #7
  %49 = load i32, ptr %14, align 4, !tbaa !61
  %50 = load i32, ptr %7, align 4, !tbaa !61
  %51 = mul nsw i32 %49, %50
  %52 = load i32, ptr %8, align 4, !tbaa !61
  %53 = sdiv i32 %51, %52
  store i32 %53, ptr %17, align 4, !tbaa !61
  call void @llvm.lifetime.start.p0(i64 4, ptr %18) #7
  %54 = load i32, ptr %14, align 4, !tbaa !61
  %55 = load i32, ptr %7, align 4, !tbaa !61
  %56 = add nsw i32 %55, 1
  %57 = mul nsw i32 %54, %56
  %58 = load i32, ptr %8, align 4, !tbaa !61
  %59 = sdiv i32 %57, %58
  store i32 %59, ptr %18, align 4, !tbaa !61
  call void @llvm.lifetime.start.p0(i64 8, ptr %19) #7
  %60 = load ptr, ptr %11, align 8, !tbaa !64
  %61 = getelementptr inbounds ptr, ptr %60, i64 0
  %62 = load ptr, ptr %61, align 8, !tbaa !58
  store ptr %62, ptr %19, align 8, !tbaa !66
  call void @llvm.lifetime.start.p0(i64 4, ptr %20) #7
  %63 = load i32, ptr %17, align 4, !tbaa !61
  store i32 %63, ptr %20, align 4, !tbaa !61
  br label %64

64:                                               ; preds = %123, %4
  %65 = load i32, ptr %20, align 4, !tbaa !61
  %66 = load i32, ptr %18, align 4, !tbaa !61
  %67 = icmp slt i32 %65, %66
  br i1 %67, label %69, label %68

68:                                               ; preds = %64
  store i32 2, ptr %21, align 4
  call void @llvm.lifetime.end.p0(i64 4, ptr %20) #7
  br label %126

69:                                               ; preds = %64
  call void @llvm.lifetime.start.p0(i64 8, ptr %22) #7
  %70 = load ptr, ptr %12, align 8, !tbaa !64
  %71 = getelementptr inbounds ptr, ptr %70, i64 0
  %72 = load ptr, ptr %71, align 8, !tbaa !58
  store ptr %72, ptr %22, align 8, !tbaa !66
  call void @llvm.lifetime.start.p0(i64 8, ptr %23) #7
  %73 = load ptr, ptr %10, align 8, !tbaa !64
  %74 = getelementptr inbounds ptr, ptr %73, i64 0
  %75 = load ptr, ptr %74, align 8, !tbaa !58
  store ptr %75, ptr %23, align 8, !tbaa !66
  call void @llvm.lifetime.start.p0(i64 4, ptr %24) #7
  store i32 0, ptr %24, align 4, !tbaa !61
  br label %76

76:                                               ; preds = %119, %69
  %77 = load i32, ptr %24, align 4, !tbaa !61
  %78 = load i32, ptr %13, align 4, !tbaa !61
  %79 = icmp slt i32 %77, %78
  br i1 %79, label %81, label %80

80:                                               ; preds = %76
  store i32 5, ptr %21, align 4
  call void @llvm.lifetime.end.p0(i64 4, ptr %24) #7
  br label %122

81:                                               ; preds = %76
  call void @llvm.lifetime.start.p0(i64 4, ptr %25) #7
  %82 = load ptr, ptr %22, align 8, !tbaa !66
  %83 = load i32, ptr %20, align 4, !tbaa !61
  %84 = sext i32 %83 to i64
  %85 = getelementptr inbounds float, ptr %82, i64 %84
  %86 = load float, ptr %85, align 4, !tbaa !65
  store float %86, ptr %25, align 4, !tbaa !65
  %87 = load float, ptr %25, align 4, !tbaa !65
  %88 = load ptr, ptr %19, align 8, !tbaa !66
  %89 = load i32, ptr %20, align 4, !tbaa !61
  %90 = sext i32 %89 to i64
  %91 = getelementptr inbounds float, ptr %88, i64 %90
  %92 = load float, ptr %91, align 4, !tbaa !65
  %93 = load float, ptr %15, align 4, !tbaa !65
  %94 = fneg nsz float %92
  %95 = call nsz float @llvm.fmuladd.f32(float %94, float %93, float %87)
  %96 = load float, ptr %16, align 4, !tbaa !65
  %97 = fmul nsz float %95, %96
  %98 = load ptr, ptr %23, align 8, !tbaa !66
  %99 = load i32, ptr %20, align 4, !tbaa !61
  %100 = sext i32 %99 to i64
  %101 = getelementptr inbounds float, ptr %98, i64 %100
  store float %97, ptr %101, align 4, !tbaa !65
  %102 = load ptr, ptr %23, align 8, !tbaa !66
  %103 = load i32, ptr %20, align 4, !tbaa !61
  %104 = sext i32 %103 to i64
  %105 = getelementptr inbounds float, ptr %102, i64 %104
  %106 = load float, ptr %105, align 4, !tbaa !65
  %107 = load ptr, ptr %19, align 8, !tbaa !66
  %108 = load i32, ptr %20, align 4, !tbaa !61
  %109 = sext i32 %108 to i64
  %110 = getelementptr inbounds float, ptr %107, i64 %109
  store float %106, ptr %110, align 4, !tbaa !65
  %111 = load i32, ptr %14, align 4, !tbaa !61
  %112 = load ptr, ptr %23, align 8, !tbaa !66
  %113 = sext i32 %111 to i64
  %114 = getelementptr inbounds float, ptr %112, i64 %113
  store ptr %114, ptr %23, align 8, !tbaa !66
  %115 = load i32, ptr %14, align 4, !tbaa !61
  %116 = load ptr, ptr %22, align 8, !tbaa !66
  %117 = sext i32 %115 to i64
  %118 = getelementptr inbounds float, ptr %116, i64 %117
  store ptr %118, ptr %22, align 8, !tbaa !66
  call void @llvm.lifetime.end.p0(i64 4, ptr %25) #7
  br label %119

119:                                              ; preds = %81
  %120 = load i32, ptr %24, align 4, !tbaa !61
  %121 = add nsw i32 %120, 1
  store i32 %121, ptr %24, align 4, !tbaa !61
  br label %76, !llvm.loop !68

122:                                              ; preds = %80
  call void @llvm.lifetime.end.p0(i64 8, ptr %23) #7
  call void @llvm.lifetime.end.p0(i64 8, ptr %22) #7
  br label %123

123:                                              ; preds = %122
  %124 = load i32, ptr %20, align 4, !tbaa !61
  %125 = add nsw i32 %124, 1
  store i32 %125, ptr %20, align 4, !tbaa !61
  br label %64, !llvm.loop !70

126:                                              ; preds = %68
  call void @llvm.lifetime.end.p0(i64 8, ptr %19) #7
  store i32 1, ptr %21, align 4
  call void @llvm.lifetime.end.p0(i64 4, ptr %18) #7
  call void @llvm.lifetime.end.p0(i64 4, ptr %17) #7
  call void @llvm.lifetime.end.p0(i64 4, ptr %16) #7
  call void @llvm.lifetime.end.p0(i64 4, ptr %15) #7
  call void @llvm.lifetime.end.p0(i64 4, ptr %14) #7
  call void @llvm.lifetime.end.p0(i64 4, ptr %13) #7
  call void @llvm.lifetime.end.p0(i64 8, ptr %12) #7
  call void @llvm.lifetime.end.p0(i64 8, ptr %11) #7
  call void @llvm.lifetime.end.p0(i64 8, ptr %10) #7
  call void @llvm.lifetime.end.p0(i64 8, ptr %9) #7
  ret i32 0
}